target datalayout = "e-m:e-p270:32:32-p271:32:32-p272:64:64-i64:64-i128:128-f80:128-n8:16:32:64-S128"
target triple = "x86_64-pc-linux-gnu"

%struct.ggml_opt_dataset = type { ptr, ptr, ptr, ptr, i64, i64, i64, i64, %"class.std::vector" }
%"class.std::vector" = type { %"struct.std::_Vector_base" }
%"struct.std::_Vector_base" = type { %"struct.std::_Vector_base<long, std::allocator<long>>::_Vector_impl" }
%"struct.std::_Vector_base<long, std::allocator<long>>::_Vector_impl" = type { %"struct.std::_Vector_base<long, std::allocator<long>>::_Vector_impl_data" }
%"struct.std::_Vector_base<long, std::allocator<long>>::_Vector_impl_data" = type { ptr, ptr, ptr }
%"class.__gnu_cxx::__normal_iterator" = type { ptr }
%struct.ggml_opt_context = type { ptr, ptr, ptr, ptr, ptr, ptr, ptr, ptr, ptr, %"class.std::mersenne_twister_engine", ptr, ptr, ptr, ptr, ptr, ptr, ptr, ptr, ptr, i64, i32, i32, i8, ptr, ptr, ptr }
%"class.std::mersenne_twister_engine" = type { [624 x i64], i64 }

@.str = private unnamed_addr constant [119 x i8] c"generated/home/dtcxzyw/WorkSpace/Projects/compilers/llvm-opt-benchmark/bench/llama.cpp/llama.cpp/ggml/src/ggml-opt.cpp\00", align 1
@.str.1 = private unnamed_addr constant [23 x i8] c"GGML_ASSERT(%s) failed\00", align 1
@.str.6 = private unnamed_addr constant [24 x i8] c"idata <= dataset->ndata\00", align 1
@.str.7 = private unnamed_addr constant [34 x i8] c"idata % dataset->ndata_shard == 0\00", align 1

; Function Attrs: mustprogress nounwind uwtable
define linkonce_odr void @_ZN9__gnu_cxx17__normal_iteratorIPlSt6vectorIlSaIlEEEC2ERKS1_(ptr noundef nonnull align 8 dereferenceable(8) %0, ptr noundef nonnull align 8 dereferenceable(8) %1) unnamed_addr #7 comdat align 2 {
  %3 = alloca ptr, align 8
  %4 = alloca ptr, align 8
  store ptr %0, ptr %3, align 8, !tbaa !51
  store ptr %1, ptr %4, align 8, !tbaa !329
  %5 = load ptr, ptr %3, align 8
  %6 = getelementptr inbounds nuw %"class.__gnu_cxx::__normal_iterator", ptr %5, i32 0, i32 0
  %7 = load ptr, ptr %4, align 8, !tbaa !329
  %8 = load ptr, ptr %7, align 8, !tbaa !49
  store ptr %8, ptr %6, align 8, !tbaa !53
  ret void
}

; Function Attrs: mustprogress nounwind uwtable
define linkonce_odr ptr @_ZNK9__gnu_cxx17__normal_iteratorIPlSt6vectorIlSaIlEEEplEl(ptr noundef nonnull align 8 dereferenceable(8) %0, i64 noundef %1) #7 comdat align 2 {
  %3 = alloca %"class.__gnu_cxx::__normal_iterator", align 8
  %4 = alloca ptr, align 8
  %5 = alloca i64, align 8
  %6 = alloca ptr, align 8
  store ptr %0, ptr %4, align 8, !tbaa !51
  store i64 %1, ptr %5, align 8, !tbaa !3
  %7 = load ptr, ptr %4, align 8
  call void @llvm.lifetime.start.p0(i64 8, ptr %6) #17
  %8 = getelementptr inbounds nuw %"class.__gnu_cxx::__normal_iterator", ptr %7, i32 0, i32 0
  %9 = load ptr, ptr %8, align 8, !tbaa !53
  %10 = load i64, ptr %5, align 8, !tbaa !3
  %11 = getelementptr inbounds i64, ptr %9, i64 %10
  store ptr %11, ptr %6, align 8, !tbaa !49
  call void @_ZN9__gnu_cxx17__normal_iteratorIPlSt6vectorIlSaIlEEEC2ERKS1_(ptr noundef nonnull align 8 dereferenceable(8) %3, ptr noundef nonnull align 8 dereferenceable(8) %6) #17
  call void @llvm.lifetime.end.p0(i64 8, ptr %6) #17
  %12 = getelementptr inbounds nuw %"class.__gnu_cxx::__normal_iterator", ptr %3, i32 0, i32 0
  %13 = load ptr, ptr %12, align 8
  ret ptr %13
}

; Function Attrs: mustprogress nounwind uwtable
define linkonce_odr ptr @_ZNSt6vectorIlSaIlEE3endEv(ptr noundef nonnull align 8 dereferenceable(24) %0) #7 comdat align 2 {
  %2 = alloca %"class.__gnu_cxx::__normal_iterator", align 8
  %3 = alloca ptr, align 8
  store ptr %0, ptr %3, align 8, !tbaa !37
  %4 = load ptr, ptr %3, align 8
  %5 = getelementptr inbounds nuw %"struct.std::_Vector_base", ptr %4, i32 0, i32 0
  %6 = getelementptr inbounds nuw %"struct.std::_Vector_base<long, std::allocator<long>>::_Vector_impl_data", ptr %5, i32 0, i32 1
  call void @_ZN9__gnu_cxx17__normal_iteratorIPlSt6vectorIlSaIlEEEC2ERKS1_(ptr noundef nonnull align 8 dereferenceable(8) %2, ptr noundef nonnull align 8 dereferenceable(8) %6) #17
  %7 = getelementptr inbounds nuw %"class.__gnu_cxx::__normal_iterator", ptr %2, i32 0, i32 0
  %8 = load ptr, ptr %7, align 8
  ret ptr %8
}

; Function Attrs: mustprogress nounwind uwtable
define linkonce_odr ptr @_ZNSt6vectorIlSaIlEE5beginEv(ptr noundef nonnull align 8 dereferenceable(24) %0) #7 comdat align 2 {
  %2 = alloca %"class.__gnu_cxx::__normal_iterator", align 8
  %3 = alloca ptr, align 8
  store ptr %0, ptr %3, align 8, !tbaa !37
  %4 = load ptr, ptr %3, align 8
  %5 = getelementptr inbounds nuw %"struct.std::_Vector_base", ptr %4, i32 0, i32 0
  %6 = getelementptr inbounds nuw %"struct.std::_Vector_base<long, std::allocator<long>>::_Vector_impl_data", ptr %5, i32 0, i32 0
  call void @_ZN9__gnu_cxx17__normal_iteratorIPlSt6vectorIlSaIlEEEC2ERKS1_(ptr noundef nonnull align 8 dereferenceable(8) %2, ptr noundef nonnull align 8 dereferenceable(8) %6) #17
  %7 = getelementptr inbounds nuw %"class.__gnu_cxx::__normal_iterator", ptr %2, i32 0, i32 0
  %8 = load ptr, ptr %7, align 8
  ret ptr %8
}

; Function Attrs: mustprogress uwtable
define void @ggml_opt_dataset_shuffle(ptr noundef %0, ptr noundef %1, i64 noundef %2) #0 {
  %4 = alloca ptr, align 8
  %5 = alloca ptr, align 8
  %6 = alloca i64, align 8
  %7 = alloca %"class.__gnu_cxx::__normal_iterator", align 8
  %8 = alloca %"class.__gnu_cxx::__normal_iterator", align 8
  %9 = alloca i64, align 8
  %10 = alloca %"class.__gnu_cxx::__normal_iterator", align 8
  %11 = alloca %"class.__gnu_cxx::__normal_iterator", align 8
  %12 = alloca %"class.__gnu_cxx::__normal_iterator", align 8
  store ptr %0, ptr %4, align 8, !tbaa !40
  store ptr %1, ptr %5, align 8, !tbaa !7
  store i64 %2, ptr %6, align 8, !tbaa !3
  %13 = load i64, ptr %6, align 8, !tbaa !3
  %14 = load ptr, ptr %5, align 8, !tbaa !7
  %15 = getelementptr inbounds nuw %struct.ggml_opt_dataset, ptr %14, i32 0, i32 4
  %16 = load i64, ptr %15, align 8, !tbaa !10
  %17 = icmp sle i64 %13, %16
  br i1 %17, label %19, label %18

18:                                               ; preds = %3
  call void (ptr, i32, ptr, ...) @ggml_abort(ptr noundef @.str, i32 noundef 131, ptr noundef @.str.1, ptr noundef @.str.6) #16
  unreachable

19:                                               ; preds = %3
  %20 = load i64, ptr %6, align 8, !tbaa !3
  %21 = icmp slt i64 %20, 0
  br i1 %21, label %22, label %37

22:                                               ; preds = %19
  %23 = load ptr, ptr %5, align 8, !tbaa !7
  %24 = getelementptr inbounds nuw %struct.ggml_opt_dataset, ptr %23, i32 0, i32 8
  %25 = call ptr @_ZNSt6vectorIlSaIlEE5beginEv(ptr noundef nonnull align 8 dereferenceable(24) %24) #17
  %26 = getelementptr inbounds nuw %"class.__gnu_cxx::__normal_iterator", ptr %7, i32 0, i32 0
  store ptr %25, ptr %26, align 8
  %27 = load ptr, ptr %5, align 8, !tbaa !7
  %28 = getelementptr inbounds nuw %struct.ggml_opt_dataset, ptr %27, i32 0, i32 8
  %29 = call ptr @_ZNSt6vectorIlSaIlEE3endEv(ptr noundef nonnull align 8 dereferenceable(24) %28) #17
  %30 = getelementptr inbounds nuw %"class.__gnu_cxx::__normal_iterator", ptr %8, i32 0, i32 0
  store ptr %29, ptr %30, align 8
  %31 = load ptr, ptr %4, align 8, !tbaa !40
  %32 = getelementptr inbounds nuw %struct.ggml_opt_context, ptr %31, i32 0, i32 9
  %33 = getelementptr inbounds nuw %"class.__gnu_cxx::__normal_iterator", ptr %7, i32 0, i32 0
  %34 = load ptr, ptr %33, align 8
  %35 = getelementptr inbounds nuw %"class.__gnu_cxx::__normal_iterator", ptr %8, i32 0, i32 0
  %36 = load ptr, ptr %35, align 8
  call void @_ZSt7shuffleIN9__gnu_cxx17__normal_iteratorIPlSt6vectorIlSaIlEEEERSt23mersenne_twister_engineImLm32ELm624ELm397ELm31ELm2567483615ELm11ELm4294967295ELm7ELm2636928640ELm15ELm4022730752ELm18ELm1812433253EEEvT_SA_OT0_(ptr %34, ptr %36, ptr noundef nonnull align 8 dereferenceable(5000) %32)
  br label %68

37:                                               ; preds = %19
  %38 = load i64, ptr %6, align 8, !tbaa !3
  %39 = load ptr, ptr %5, align 8, !tbaa !7
  %40 = getelementptr inbounds nuw %struct.ggml_opt_dataset, ptr %39, i32 0, i32 5
  %41 = load i64, ptr %40, align 8, !tbaa !20
  %42 = srem i64 %38, %41
  %43 = icmp eq i64 %42, 0
  br i1 %43, label %45, label %44

44:                                               ; preds = %37
  call void (ptr, i32, ptr, ...) @ggml_abort(ptr noundef @.str, i32 noundef 138, ptr noundef @.str.1, ptr noundef @.str.7) #16
  unreachable

45:                                               ; preds = %37
  call void @llvm.lifetime.start.p0(i64 8, ptr %9) #17
  %46 = load i64, ptr %6, align 8, !tbaa !3
  %47 = load ptr, ptr %5, align 8, !tbaa !7
  %48 = getelementptr inbounds nuw %struct.ggml_opt_dataset, ptr %47, i32 0, i32 5
  %49 = load i64, ptr %48, align 8, !tbaa !20
  %50 = sdiv i64 %46, %49
  store i64 %50, ptr %9, align 8, !tbaa !3
  %51 = load ptr, ptr %5, align 8, !tbaa !7
  %52 = getelementptr inbounds nuw %struct.ggml_opt_dataset, ptr %51, i32 0, i32 8
  %53 = call ptr @_ZNSt6vectorIlSaIlEE5beginEv(ptr noundef nonnull align 8 dereferenceable(24) %52) #17
  %54 = getelementptr inbounds nuw %"class.__gnu_cxx::__normal_iterator", ptr %10, i32 0, i32 0
  store ptr %53, ptr %54, align 8
  call void @llvm.lifetime.start.p0(i64 8, ptr %12) #17
  %55 = load ptr, ptr %5, align 8, !tbaa !7
  %56 = getelementptr inbounds nuw %struct.ggml_opt_dataset, ptr %55, i32 0, i32 8
  %57 = call ptr @_ZNSt6vectorIlSaIlEE5beginEv(ptr noundef nonnull align 8 dereferenceable(24) %56) #17
  %58 = getelementptr inbounds nuw %"class.__gnu_cxx::__normal_iterator", ptr %12, i32 0, i32 0
  store ptr %57, ptr %58, align 8
  %59 = load i64, ptr %9, align 8, !tbaa !3
  %60 = call ptr @_ZNK9__gnu_cxx17__normal_iteratorIPlSt6vectorIlSaIlEEEplEl(ptr noundef nonnull align 8 dereferenceable(8) %12, i64 noundef %59) #17
  %61 = getelementptr inbounds nuw %"class.__gnu_cxx::__normal_iterator", ptr %11, i32 0, i32 0
  store ptr %60, ptr %61, align 8
  %62 = load ptr, ptr %4, align 8, !tbaa !40
  %63 = getelementptr inbounds nuw %struct.ggml_opt_context, ptr %62, i32 0, i32 9
  %64 = getelementptr inbounds nuw %"class.__gnu_cxx::__normal_iterator", ptr %10, i32 0, i32 0
  %65 = load ptr, ptr %64, align 8
  %66 = getelementptr inbounds nuw %"class.__gnu_cxx::__normal_iterator", ptr %11, i32 0, i32 0
  %67 = load ptr, ptr %66, align 8
  call void @_ZSt7shuffleIN9__gnu_cxx17__normal_iteratorIPlSt6vectorIlSaIlEEEERSt23mersenne_twister_engineImLm32ELm624ELm397ELm31ELm2567483615ELm11ELm4294967295ELm7ELm2636928640ELm15ELm4022730752ELm18ELm1812433253EEEvT_SA_OT0_(ptr %65, ptr %67, ptr noundef nonnull align 8 dereferenceable(5000) %63)
  call void @llvm.lifetime.end.p0(i64 8, ptr %12) #17
  call void @llvm.lifetime.end.p0(i64 8, ptr %9) #17
  br label %68

68:                                               ; preds = %45, %22
  ret void
}