; Function Attrs: mustprogress uwtable
define void @ggml_opt_dataset_shuffle(ptr noundef %0, ptr noundef readonly captures(none) %1, i64 noundef %2) local_unnamed_addr #0 {
  %4 = getelementptr inbounds nuw i8, ptr %1, i64 32
  %5 = load i64, ptr %4, align 8, !tbaa !3
  %.not = icmp sgt i64 %2, %5
  br i1 %.not, label %6, label %7

6:                                                ; preds = %3
  tail call void (ptr, i32, ptr, ...) @ggml_abort(ptr noundef nonnull @.str, i32 noundef 131, ptr noundef nonnull @.str.1, ptr noundef nonnull @.str.6) #27
  unreachable

7:                                                ; preds = %3
  %8 = icmp slt i64 %2, 0
  br i1 %8, label %9, label %15

9:                                                ; preds = %7
  %10 = getelementptr inbounds nuw i8, ptr %1, i64 64
  %11 = load ptr, ptr %10, align 8, !tbaa !32
  %12 = getelementptr inbounds nuw i8, ptr %1, i64 72
  %13 = load ptr, ptr %12, align 8, !tbaa !32
  %14 = getelementptr inbounds nuw i8, ptr %0, i64 72
  tail call void @_ZSt7shuffleIN9__gnu_cxx17__normal_iteratorIPlSt6vectorIlSaIlEEEERSt23mersenne_twister_engineImLm32ELm624ELm397ELm31ELm2567483615ELm11ELm4294967295ELm7ELm2636928640ELm15ELm4022730752ELm18ELm1812433253EEEvT_SA_OT0_(ptr %11, ptr %13, ptr noundef nonnull align 8 dereferenceable(5000) %14)
  br label %27

15:                                               ; preds = %7
  %16 = getelementptr inbounds nuw i8, ptr %1, i64 40
  %17 = load i64, ptr %16, align 8, !tbaa !17
  %18 = srem i64 %2, %17
  %19 = sdiv i64 %2, %17
  %20 = icmp eq i64 %18, 0
  br i1 %20, label %22, label %21

21:                                               ; preds = %15
  tail call void (ptr, i32, ptr, ...) @ggml_abort(ptr noundef nonnull @.str, i32 noundef 138, ptr noundef nonnull @.str.1, ptr noundef nonnull @.str.7) #27
  unreachable

22:                                               ; preds = %15
  %23 = getelementptr inbounds nuw i8, ptr %1, i64 64
  %24 = load ptr, ptr %23, align 8, !tbaa !32
  %25 = getelementptr inbounds i64, ptr %24, i64 %19
  %26 = getelementptr inbounds nuw i8, ptr %0, i64 72
  tail call void @_ZSt7shuffleIN9__gnu_cxx17__normal_iteratorIPlSt6vectorIlSaIlEEEERSt23mersenne_twister_engineImLm32ELm624ELm397ELm31ELm2567483615ELm11ELm4294967295ELm7ELm2636928640ELm15ELm4022730752ELm18ELm1812433253EEEvT_SA_OT0_(ptr %24, ptr %25, ptr noundef nonnull align 8 dereferenceable(5000) %26)
  br label %27

27:                                               ; preds = %22, %9
  ret void
}